target datalayout = "e-m:e-p270:32:32-p271:32:32-p272:64:64-i64:64-i128:128-f80:128-n8:16:32:64-S128"
target triple = "x86_64-pc-linux-gnu"

%struct.AVChannelLayout = type { i32, i32, %union.anon.1, ptr }
%union.anon.1 = type { i64 }
%struct.AVRational = type { i32, i32 }
%struct.AVFrame = type { [8 x ptr], [8 x i32], ptr, i32, i32, i32, i32, i32, %struct.AVRational, i64, i64, %struct.AVRational, i32, ptr, i32, i32, [8 x ptr], ptr, i32, ptr, i32, i32, i32, i32, i32, i32, i32, i64, ptr, i32, ptr, ptr, i64, i64, i64, i64, ptr, %struct.AVChannelLayout, i64 }

; Function Attrs: nounwind uwtable
define internal void @reverse_samples(ptr noundef %0, ptr noundef %1, i32 noundef %2, i32 noundef %3, i32 noundef %4, i32 noundef %5) #1 {
  %7 = alloca ptr, align 8
  %8 = alloca ptr, align 8
  %9 = alloca i32, align 4
  %10 = alloca i32, align 4
  %11 = alloca i32, align 4
  %12 = alloca i32, align 4
  %13 = alloca ptr, align 8
  %14 = alloca ptr, align 8
  %15 = alloca i32, align 4
  %16 = alloca i32, align 4
  %17 = alloca ptr, align 8
  %18 = alloca ptr, align 8
  %19 = alloca i32, align 4
  %20 = alloca i32, align 4
  %21 = alloca ptr, align 8
  %22 = alloca ptr, align 8
  %23 = alloca i32, align 4
  %24 = alloca i32, align 4
  %25 = alloca ptr, align 8
  %26 = alloca ptr, align 8
  %27 = alloca i32, align 4
  %28 = alloca i32, align 4
  store ptr %0, ptr %7, align 8, !tbaa !43
  store ptr %1, ptr %8, align 8, !tbaa !43
  store i32 %2, ptr %9, align 4, !tbaa !31
  store i32 %3, ptr %10, align 4, !tbaa !31
  store i32 %4, ptr %11, align 4, !tbaa !31
  store i32 %5, ptr %12, align 4, !tbaa !31
  %29 = load ptr, ptr %7, align 8, !tbaa !43
  %30 = getelementptr inbounds nuw %struct.AVFrame, ptr %29, i32 0, i32 6
  %31 = load i32, ptr %30, align 4, !tbaa !74
  switch i32 %31, label %208 [
    i32 6, label %32
    i32 7, label %76
    i32 8, label %120
    i32 9, label %164
  ]

32:                                               ; preds = %6
  call void @llvm.lifetime.start.p0(i64 8, ptr %13) #11
  %33 = load ptr, ptr %8, align 8, !tbaa !43
  %34 = getelementptr inbounds nuw %struct.AVFrame, ptr %33, i32 0, i32 2
  %35 = load ptr, ptr %34, align 8, !tbaa !67
  %36 = load i32, ptr %9, align 4, !tbaa !31
  %37 = sext i32 %36 to i64
  %38 = getelementptr inbounds ptr, ptr %35, i64 %37
  %39 = load ptr, ptr %38, align 8, !tbaa !38
  %40 = load i32, ptr %11, align 4, !tbaa !31
  %41 = sext i32 %40 to i64
  %42 = getelementptr inbounds i16, ptr %39, i64 %41
  store ptr %42, ptr %13, align 8, !tbaa !83
  call void @llvm.lifetime.start.p0(i64 8, ptr %14) #11
  %43 = load ptr, ptr %7, align 8, !tbaa !43
  %44 = getelementptr inbounds nuw %struct.AVFrame, ptr %43, i32 0, i32 2
  %45 = load ptr, ptr %44, align 8, !tbaa !67
  %46 = load i32, ptr %9, align 4, !tbaa !31
  %47 = sext i32 %46 to i64
  %48 = getelementptr inbounds ptr, ptr %45, i64 %47
  %49 = load ptr, ptr %48, align 8, !tbaa !38
  %50 = load i32, ptr %10, align 4, !tbaa !31
  %51 = sext i32 %50 to i64
  %52 = getelementptr inbounds i16, ptr %49, i64 %51
  store ptr %52, ptr %14, align 8, !tbaa !83
  call void @llvm.lifetime.start.p0(i64 4, ptr %15) #11
  store i32 0, ptr %15, align 4, !tbaa !31
  call void @llvm.lifetime.start.p0(i64 4, ptr %16) #11
  %53 = load i32, ptr %12, align 4, !tbaa !31
  %54 = sub nsw i32 %53, 1
  store i32 %54, ptr %16, align 4, !tbaa !31
  br label %55

55:                                               ; preds = %70, %32
  %56 = load i32, ptr %15, align 4, !tbaa !31
  %57 = load i32, ptr %12, align 4, !tbaa !31
  %58 = icmp slt i32 %56, %57
  br i1 %58, label %60, label %59

59:                                               ; preds = %55
  call void @llvm.lifetime.end.p0(i64 4, ptr %16) #11
  call void @llvm.lifetime.end.p0(i64 4, ptr %15) #11
  br label %75

60:                                               ; preds = %55
  %61 = load ptr, ptr %13, align 8, !tbaa !83
  %62 = load i32, ptr %16, align 4, !tbaa !31
  %63 = sext i32 %62 to i64
  %64 = getelementptr inbounds i16, ptr %61, i64 %63
  %65 = load i16, ptr %64, align 2, !tbaa !88
  %66 = load ptr, ptr %14, align 8, !tbaa !83
  %67 = load i32, ptr %15, align 4, !tbaa !31
  %68 = sext i32 %67 to i64
  %69 = getelementptr inbounds i16, ptr %66, i64 %68
  store i16 %65, ptr %69, align 2, !tbaa !88
  br label %70

70:                                               ; preds = %60
  %71 = load i32, ptr %15, align 4, !tbaa !31
  %72 = add nsw i32 %71, 1
  store i32 %72, ptr %15, align 4, !tbaa !31
  %73 = load i32, ptr %16, align 4, !tbaa !31
  %74 = add nsw i32 %73, -1
  store i32 %74, ptr %16, align 4, !tbaa !31
  br label %55, !llvm.loop !132

75:                                               ; preds = %59
  call void @llvm.lifetime.end.p0(i64 8, ptr %14) #11
  call void @llvm.lifetime.end.p0(i64 8, ptr %13) #11
  br label %208

76:                                               ; preds = %6
  call void @llvm.lifetime.start.p0(i64 8, ptr %17) #11
  %77 = load ptr, ptr %8, align 8, !tbaa !43
  %78 = getelementptr inbounds nuw %struct.AVFrame, ptr %77, i32 0, i32 2
  %79 = load ptr, ptr %78, align 8, !tbaa !67
  %80 = load i32, ptr %9, align 4, !tbaa !31
  %81 = sext i32 %80 to i64
  %82 = getelementptr inbounds ptr, ptr %79, i64 %81
  %83 = load ptr, ptr %82, align 8, !tbaa !38
  %84 = load i32, ptr %11, align 4, !tbaa !31
  %85 = sext i32 %84 to i64
  %86 = getelementptr inbounds i32, ptr %83, i64 %85
  store ptr %86, ptr %17, align 8, !tbaa !82
  call void @llvm.lifetime.start.p0(i64 8, ptr %18) #11
  %87 = load ptr, ptr %7, align 8, !tbaa !43
  %88 = getelementptr inbounds nuw %struct.AVFrame, ptr %87, i32 0, i32 2
  %89 = load ptr, ptr %88, align 8, !tbaa !67
  %90 = load i32, ptr %9, align 4, !tbaa !31
  %91 = sext i32 %90 to i64
  %92 = getelementptr inbounds ptr, ptr %89, i64 %91
  %93 = load ptr, ptr %92, align 8, !tbaa !38
  %94 = load i32, ptr %10, align 4, !tbaa !31
  %95 = sext i32 %94 to i64
  %96 = getelementptr inbounds i32, ptr %93, i64 %95
  store ptr %96, ptr %18, align 8, !tbaa !82
  call void @llvm.lifetime.start.p0(i64 4, ptr %19) #11
  store i32 0, ptr %19, align 4, !tbaa !31
  call void @llvm.lifetime.start.p0(i64 4, ptr %20) #11
  %97 = load i32, ptr %12, align 4, !tbaa !31
  %98 = sub nsw i32 %97, 1
  store i32 %98, ptr %20, align 4, !tbaa !31
  br label %99

99:                                               ; preds = %114, %76
  %100 = load i32, ptr %19, align 4, !tbaa !31
  %101 = load i32, ptr %12, align 4, !tbaa !31
  %102 = icmp slt i32 %100, %101
  br i1 %102, label %104, label %103

103:                                              ; preds = %99
  call void @llvm.lifetime.end.p0(i64 4, ptr %20) #11
  call void @llvm.lifetime.end.p0(i64 4, ptr %19) #11
  br label %119

104:                                              ; preds = %99
  %105 = load ptr, ptr %17, align 8, !tbaa !82
  %106 = load i32, ptr %20, align 4, !tbaa !31
  %107 = sext i32 %106 to i64
  %108 = getelementptr inbounds i32, ptr %105, i64 %107
  %109 = load i32, ptr %108, align 4, !tbaa !31
  %110 = load ptr, ptr %18, align 8, !tbaa !82
  %111 = load i32, ptr %19, align 4, !tbaa !31
  %112 = sext i32 %111 to i64
  %113 = getelementptr inbounds i32, ptr %110, i64 %112
  store i32 %109, ptr %113, align 4, !tbaa !31
  br label %114

114:                                              ; preds = %104
  %115 = load i32, ptr %19, align 4, !tbaa !31
  %116 = add nsw i32 %115, 1
  store i32 %116, ptr %19, align 4, !tbaa !31
  %117 = load i32, ptr %20, align 4, !tbaa !31
  %118 = add nsw i32 %117, -1
  store i32 %118, ptr %20, align 4, !tbaa !31
  br label %99, !llvm.loop !133

119:                                              ; preds = %103
  call void @llvm.lifetime.end.p0(i64 8, ptr %18) #11
  call void @llvm.lifetime.end.p0(i64 8, ptr %17) #11
  br label %208

120:                                              ; preds = %6
  call void @llvm.lifetime.start.p0(i64 8, ptr %21) #11
  %121 = load ptr, ptr %8, align 8, !tbaa !43
  %122 = getelementptr inbounds nuw %struct.AVFrame, ptr %121, i32 0, i32 2
  %123 = load ptr, ptr %122, align 8, !tbaa !67
  %124 = load i32, ptr %9, align 4, !tbaa !31
  %125 = sext i32 %124 to i64
  %126 = getelementptr inbounds ptr, ptr %123, i64 %125
  %127 = load ptr, ptr %126, align 8, !tbaa !38
  %128 = load i32, ptr %11, align 4, !tbaa !31
  %129 = sext i32 %128 to i64
  %130 = getelementptr inbounds float, ptr %127, i64 %129
  store ptr %130, ptr %21, align 8, !tbaa !85
  call void @llvm.lifetime.start.p0(i64 8, ptr %22) #11
  %131 = load ptr, ptr %7, align 8, !tbaa !43
  %132 = getelementptr inbounds nuw %struct.AVFrame, ptr %131, i32 0, i32 2
  %133 = load ptr, ptr %132, align 8, !tbaa !67
  %134 = load i32, ptr %9, align 4, !tbaa !31
  %135 = sext i32 %134 to i64
  %136 = getelementptr inbounds ptr, ptr %133, i64 %135
  %137 = load ptr, ptr %136, align 8, !tbaa !38
  %138 = load i32, ptr %10, align 4, !tbaa !31
  %139 = sext i32 %138 to i64
  %140 = getelementptr inbounds float, ptr %137, i64 %139
  store ptr %140, ptr %22, align 8, !tbaa !85
  call void @llvm.lifetime.start.p0(i64 4, ptr %23) #11
  store i32 0, ptr %23, align 4, !tbaa !31
  call void @llvm.lifetime.start.p0(i64 4, ptr %24) #11
  %141 = load i32, ptr %12, align 4, !tbaa !31
  %142 = sub nsw i32 %141, 1
  store i32 %142, ptr %24, align 4, !tbaa !31
  br label %143

143:                                              ; preds = %158, %120
  %144 = load i32, ptr %23, align 4, !tbaa !31
  %145 = load i32, ptr %12, align 4, !tbaa !31
  %146 = icmp slt i32 %144, %145
  br i1 %146, label %148, label %147

147:                                              ; preds = %143
  call void @llvm.lifetime.end.p0(i64 4, ptr %24) #11
  call void @llvm.lifetime.end.p0(i64 4, ptr %23) #11
  br label %163

148:                                              ; preds = %143
  %149 = load ptr, ptr %21, align 8, !tbaa !85
  %150 = load i32, ptr %24, align 4, !tbaa !31
  %151 = sext i32 %150 to i64
  %152 = getelementptr inbounds float, ptr %149, i64 %151
  %153 = load float, ptr %152, align 4, !tbaa !80
  %154 = load ptr, ptr %22, align 8, !tbaa !85
  %155 = load i32, ptr %23, align 4, !tbaa !31
  %156 = sext i32 %155 to i64
  %157 = getelementptr inbounds float, ptr %154, i64 %156
  store float %153, ptr %157, align 4, !tbaa !80
  br label %158

158:                                              ; preds = %148
  %159 = load i32, ptr %23, align 4, !tbaa !31
  %160 = add nsw i32 %159, 1
  store i32 %160, ptr %23, align 4, !tbaa !31
  %161 = load i32, ptr %24, align 4, !tbaa !31
  %162 = add nsw i32 %161, -1
  store i32 %162, ptr %24, align 4, !tbaa !31
  br label %143, !llvm.loop !134

163:                                              ; preds = %147
  call void @llvm.lifetime.end.p0(i64 8, ptr %22) #11
  call void @llvm.lifetime.end.p0(i64 8, ptr %21) #11
  br label %208

164:                                              ; preds = %6
  call void @llvm.lifetime.start.p0(i64 8, ptr %25) #11
  %165 = load ptr, ptr %8, align 8, !tbaa !43
  %166 = getelementptr inbounds nuw %struct.AVFrame, ptr %165, i32 0, i32 2
  %167 = load ptr, ptr %166, align 8, !tbaa !67
  %168 = load i32, ptr %9, align 4, !tbaa !31
  %169 = sext i32 %168 to i64
  %170 = getelementptr inbounds ptr, ptr %167, i64 %169
  %171 = load ptr, ptr %170, align 8, !tbaa !38
  %172 = load i32, ptr %11, align 4, !tbaa !31
  %173 = sext i32 %172 to i64
  %174 = getelementptr inbounds double, ptr %171, i64 %173
  store ptr %174, ptr %25, align 8, !tbaa !91
  call void @llvm.lifetime.start.p0(i64 8, ptr %26) #11
  %175 = load ptr, ptr %7, align 8, !tbaa !43
  %176 = getelementptr inbounds nuw %struct.AVFrame, ptr %175, i32 0, i32 2
  %177 = load ptr, ptr %176, align 8, !tbaa !67
  %178 = load i32, ptr %9, align 4, !tbaa !31
  %179 = sext i32 %178 to i64
  %180 = getelementptr inbounds ptr, ptr %177, i64 %179
  %181 = load ptr, ptr %180, align 8, !tbaa !38
  %182 = load i32, ptr %10, align 4, !tbaa !31
  %183 = sext i32 %182 to i64
  %184 = getelementptr inbounds double, ptr %181, i64 %183
  store ptr %184, ptr %26, align 8, !tbaa !91
  call void @llvm.lifetime.start.p0(i64 4, ptr %27) #11
  store i32 0, ptr %27, align 4, !tbaa !31
  call void @llvm.lifetime.start.p0(i64 4, ptr %28) #11
  %185 = load i32, ptr %12, align 4, !tbaa !31
  %186 = sub nsw i32 %185, 1
  store i32 %186, ptr %28, align 4, !tbaa !31
  br label %187

187:                                              ; preds = %202, %164
  %188 = load i32, ptr %27, align 4, !tbaa !31
  %189 = load i32, ptr %12, align 4, !tbaa !31
  %190 = icmp slt i32 %188, %189
  br i1 %190, label %192, label %191

191:                                              ; preds = %187
  call void @llvm.lifetime.end.p0(i64 4, ptr %28) #11
  call void @llvm.lifetime.end.p0(i64 4, ptr %27) #11
  br label %207

192:                                              ; preds = %187
  %193 = load ptr, ptr %25, align 8, !tbaa !91
  %194 = load i32, ptr %28, align 4, !tbaa !31
  %195 = sext i32 %194 to i64
  %196 = getelementptr inbounds double, ptr %193, i64 %195
  %197 = load double, ptr %196, align 8, !tbaa !55
  %198 = load ptr, ptr %26, align 8, !tbaa !91
  %199 = load i32, ptr %27, align 4, !tbaa !31
  %200 = sext i32 %199 to i64
  %201 = getelementptr inbounds double, ptr %198, i64 %200
  store double %197, ptr %201, align 8, !tbaa !55
  br label %202

202:                                              ; preds = %192
  %203 = load i32, ptr %27, align 4, !tbaa !31
  %204 = add nsw i32 %203, 1
  store i32 %204, ptr %27, align 4, !tbaa !31
  %205 = load i32, ptr %28, align 4, !tbaa !31
  %206 = add nsw i32 %205, -1
  store i32 %206, ptr %28, align 4, !tbaa !31
  br label %187, !llvm.loop !135

207:                                              ; preds = %191
  call void @llvm.lifetime.end.p0(i64 8, ptr %26) #11
  call void @llvm.lifetime.end.p0(i64 8, ptr %25) #11
  br label %208

208:                                              ; preds = %6, %207, %163, %119, %75
  ret void
}