; Function Attrs: nofree norecurse nosync nounwind memory(readwrite, inaccessiblemem: none) uwtable
define internal fastcc void @reverse_samples(ptr noundef readonly captures(none) %0, ptr noundef readonly captures(none) %1, i32 noundef %2, i32 noundef %3) unnamed_addr #12 {
  %5 = getelementptr inbounds nuw i8, ptr %0, i64 116
  %6 = load i32, ptr %5, align 4, !tbaa !67
  switch i32 %6, label %.loopexit [
    i32 6, label %7
    i32 7, label %22
    i32 8, label %37
    i32 9, label %52
  ]

7:                                                ; preds = %4
  %8 = getelementptr inbounds nuw i8, ptr %1, i64 96
  %9 = load ptr, ptr %8, align 8, !tbaa !60
  %10 = sext i32 %2 to i64
  %11 = getelementptr inbounds ptr, ptr %9, i64 %10
  %12 = load ptr, ptr %11, align 8, !tbaa !115
  %13 = getelementptr inbounds nuw i8, ptr %0, i64 96
  %14 = load ptr, ptr %13, align 8, !tbaa !60
  %15 = getelementptr inbounds ptr, ptr %14, i64 %10
  %16 = load ptr, ptr %15, align 8, !tbaa !115
  %17 = icmp sgt i32 %3, 0
  br i1 %17, label %.lr.ph80.preheader, label %.loopexit

.lr.ph80.preheader:                               ; preds = %7
  %18 = zext nneg i32 %3 to i64
  %wide.trip.count114 = zext nneg i32 %3 to i64
  br label %.lr.ph80

.lr.ph80:                                         ; preds = %.lr.ph80.preheader, %.lr.ph80
  %indvars.iv109 = phi i64 [ %18, %.lr.ph80.preheader ], [ %indvars.iv.next110, %.lr.ph80 ]
  %indvars.iv107 = phi i64 [ 0, %.lr.ph80.preheader ], [ %indvars.iv.next108, %.lr.ph80 ]
  %indvars.iv.next110 = add nsw i64 %indvars.iv109, -1
  %19 = getelementptr inbounds i16, ptr %12, i64 %indvars.iv.next110
  %20 = load i16, ptr %19, align 2, !tbaa !76
  %21 = getelementptr inbounds nuw i16, ptr %16, i64 %indvars.iv107
  store i16 %20, ptr %21, align 2, !tbaa !76
  %indvars.iv.next108 = add nuw nsw i64 %indvars.iv107, 1
  %exitcond115.not = icmp eq i64 %indvars.iv.next108, %wide.trip.count114
  br i1 %exitcond115.not, label %.loopexit, label %.lr.ph80, !llvm.loop !118

22:                                               ; preds = %4
  %23 = getelementptr inbounds nuw i8, ptr %1, i64 96
  %24 = load ptr, ptr %23, align 8, !tbaa !60
  %25 = sext i32 %2 to i64
  %26 = getelementptr inbounds ptr, ptr %24, i64 %25
  %27 = load ptr, ptr %26, align 8, !tbaa !115
  %28 = getelementptr inbounds nuw i8, ptr %0, i64 96
  %29 = load ptr, ptr %28, align 8, !tbaa !60
  %30 = getelementptr inbounds ptr, ptr %29, i64 %25
  %31 = load ptr, ptr %30, align 8, !tbaa !115
  %32 = icmp sgt i32 %3, 0
  br i1 %32, label %.lr.ph77.preheader, label %.loopexit

.lr.ph77.preheader:                               ; preds = %22
  %33 = zext nneg i32 %3 to i64
  %wide.trip.count105 = zext nneg i32 %3 to i64
  br label %.lr.ph77

.lr.ph77:                                         ; preds = %.lr.ph77.preheader, %.lr.ph77
  %indvars.iv100 = phi i64 [ %33, %.lr.ph77.preheader ], [ %indvars.iv.next101, %.lr.ph77 ]
  %indvars.iv98 = phi i64 [ 0, %.lr.ph77.preheader ], [ %indvars.iv.next99, %.lr.ph77 ]
  %indvars.iv.next101 = add nsw i64 %indvars.iv100, -1
  %34 = getelementptr inbounds i32, ptr %27, i64 %indvars.iv.next101
  %35 = load i32, ptr %34, align 4, !tbaa !30
  %36 = getelementptr inbounds nuw i32, ptr %31, i64 %indvars.iv98
  store i32 %35, ptr %36, align 4, !tbaa !30
  %indvars.iv.next99 = add nuw nsw i64 %indvars.iv98, 1
  %exitcond106.not = icmp eq i64 %indvars.iv.next99, %wide.trip.count105
  br i1 %exitcond106.not, label %.loopexit, label %.lr.ph77, !llvm.loop !119

37:                                               ; preds = %4
  %38 = getelementptr inbounds nuw i8, ptr %1, i64 96
  %39 = load ptr, ptr %38, align 8, !tbaa !60
  %40 = sext i32 %2 to i64
  %41 = getelementptr inbounds ptr, ptr %39, i64 %40
  %42 = load ptr, ptr %41, align 8, !tbaa !115
  %43 = getelementptr inbounds nuw i8, ptr %0, i64 96
  %44 = load ptr, ptr %43, align 8, !tbaa !60
  %45 = getelementptr inbounds ptr, ptr %44, i64 %40
  %46 = load ptr, ptr %45, align 8, !tbaa !115
  %47 = icmp sgt i32 %3, 0
  br i1 %47, label %.lr.ph74.preheader, label %.loopexit

.lr.ph74.preheader:                               ; preds = %37
  %48 = zext nneg i32 %3 to i64
  %wide.trip.count96 = zext nneg i32 %3 to i64
  br label %.lr.ph74

.lr.ph74:                                         ; preds = %.lr.ph74.preheader, %.lr.ph74
  %indvars.iv91 = phi i64 [ 0, %.lr.ph74.preheader ], [ %indvars.iv.next92, %.lr.ph74 ]
  %indvars.iv89 = phi i64 [ %48, %.lr.ph74.preheader ], [ %indvars.iv.next90, %.lr.ph74 ]
  %indvars.iv.next90 = add nsw i64 %indvars.iv89, -1
  %49 = getelementptr inbounds float, ptr %42, i64 %indvars.iv.next90
  %50 = load float, ptr %49, align 4, !tbaa !73
  %51 = getelementptr inbounds nuw float, ptr %46, i64 %indvars.iv91
  store float %50, ptr %51, align 4, !tbaa !73
  %indvars.iv.next92 = add nuw nsw i64 %indvars.iv91, 1
  %exitcond97.not = icmp eq i64 %indvars.iv.next92, %wide.trip.count96
  br i1 %exitcond97.not, label %.loopexit, label %.lr.ph74, !llvm.loop !120

52:                                               ; preds = %4
  %53 = getelementptr inbounds nuw i8, ptr %1, i64 96
  %54 = load ptr, ptr %53, align 8, !tbaa !60
  %55 = sext i32 %2 to i64
  %56 = getelementptr inbounds ptr, ptr %54, i64 %55
  %57 = load ptr, ptr %56, align 8, !tbaa !115
  %58 = getelementptr inbounds nuw i8, ptr %0, i64 96
  %59 = load ptr, ptr %58, align 8, !tbaa !60
  %60 = getelementptr inbounds ptr, ptr %59, i64 %55
  %61 = load ptr, ptr %60, align 8, !tbaa !115
  %62 = icmp sgt i32 %3, 0
  br i1 %62, label %.lr.ph.preheader, label %.loopexit

.lr.ph.preheader:                                 ; preds = %52
  %63 = zext nneg i32 %3 to i64
  %wide.trip.count = zext nneg i32 %3 to i64
  br label %.lr.ph

.lr.ph:                                           ; preds = %.lr.ph.preheader, %.lr.ph
  %indvars.iv84 = phi i64 [ 0, %.lr.ph.preheader ], [ %indvars.iv.next85, %.lr.ph ]
  %indvars.iv = phi i64 [ %63, %.lr.ph.preheader ], [ %indvars.iv.next, %.lr.ph ]
  %indvars.iv.next = add nsw i64 %indvars.iv, -1
  %64 = getelementptr inbounds double, ptr %57, i64 %indvars.iv.next
  %65 = load double, ptr %64, align 8, !tbaa !53
  %66 = getelementptr inbounds nuw double, ptr %61, i64 %indvars.iv84
  store double %65, ptr %66, align 8, !tbaa !53
  %indvars.iv.next85 = add nuw nsw i64 %indvars.iv84, 1
  %exitcond.not = icmp eq i64 %indvars.iv.next85, %wide.trip.count
  br i1 %exitcond.not, label %.loopexit, label %.lr.ph, !llvm.loop !121

.loopexit:                                        ; preds = %.lr.ph, %.lr.ph74, %.lr.ph77, %.lr.ph80, %52, %37, %22, %7, %4
  ret void
}